target datalayout = "e-m:e-p270:32:32-p271:32:32-p272:64:64-i64:64-i128:128-f80:128-n8:16:32:64-S128"
target triple = "x86_64-pc-linux-gnu"

@.str = private unnamed_addr constant [105 x i8] c"generated/home/dtcxzyw/WorkSpace/Projects/compilers/llvm-opt-benchmark/bench/hdf5/hdf5/src/H5FDperform.c\00", align 1
@__func__.H5FDperform_init = private unnamed_addr constant [17 x i8] c"H5FDperform_init\00", align 1
@H5E_FUNC_g = external global i64, align 8
@H5E_CANTINIT_g = external global i64, align 8
@.str.1 = private unnamed_addr constant [30 x i8] c"library initialization failed\00", align 1

; Function Attrs: nounwind uwtable
define i64 @H5FDperform_init(ptr noundef %0) #0 {
  %2 = alloca ptr, align 8
  %3 = alloca i64, align 8
  %4 = alloca i8, align 1
  store ptr %0, ptr %2, align 8
  store i64 -1, ptr %3, align 8
  store i8 0, ptr %4, align 1
  %5 = call i32 @H5_init_library()
  %6 = icmp slt i32 %5, 0
  br i1 %6, label %7, label %22

7:                                                ; preds = %1
  br label %8

8:                                                ; preds = %7
  br label %9

9:                                                ; preds = %8
  br label %10

10:                                               ; preds = %9
  %11 = load i64, ptr @H5E_FUNC_g, align 8
  %12 = load i64, ptr @H5E_CANTINIT_g, align 8
  %13 = call i32 (ptr, ptr, i32, i64, i64, ptr, ...) @H5E_printf_stack(ptr noundef @.str, ptr noundef @__func__.H5FDperform_init, i32 noundef 51, i64 noundef %11, i64 noundef %12, ptr noundef @.str.1)
  br label %14

14:                                               ; preds = %10
  store i8 1, ptr %4, align 1
  %15 = load i8, ptr %4, align 1
  %16 = trunc i8 %15 to i1
  %17 = zext i1 %16 to i8
  store i8 %17, ptr %4, align 1
  br label %18

18:                                               ; preds = %14
  br label %19

19:                                               ; preds = %18
  store i64 -1, ptr %3, align 8
  br label %25

20:                                               ; No predecessors!
  br label %21

21:                                               ; preds = %20
  br label %22

22:                                               ; preds = %21, %1
  %23 = load ptr, ptr %2, align 8
  %24 = call i64 %23()
  store i64 %24, ptr %3, align 8
  br label %25

25:                                               ; preds = %22, %19
  %26 = load i8, ptr %4, align 1
  %27 = trunc i8 %26 to i1
  %28 = xor i1 %27, true
  %29 = xor i1 %28, true
  %30 = zext i1 %29 to i32
  %31 = sext i32 %30 to i64
  %32 = icmp ne i64 %31, 0
  br i1 %32, label %33, label %35

33:                                               ; preds = %25
  %34 = call i32 @H5E_dump_api_stack()
  br label %35

35:                                               ; preds = %33, %25
  %36 = load i64, ptr %3, align 8
  ret i64 %36
}

declare i32 @H5_init_library() #1

declare i32 @H5E_printf_stack(ptr noundef, ptr noundef, i32 noundef, i64 noundef, i64 noundef, ptr noundef, ...) #1

declare i32 @H5E_dump_api_stack() #1


!llvm.module.flags = !{!0, !1, !2, !3}

!0 = !{i32 1, !"wchar_size", i32 4}
!1 = !{i32 8, !"PIC Level", i32 2}
!2 = !{i32 7, !"uwtable", i32 2}
!3 = !{i32 7, !"frame-pointer", i32 2}
