; ModuleID = 'bench/hdf5/original/H5FDperform.c.ll'
source_filename = "bench/hdf5/original/H5FDperform.c.ll"
target datalayout = "e-m:e-p270:32:32-p271:32:32-p272:64:64-i64:64-i128:128-f80:128-n8:16:32:64-S128"
target triple = "x86_64-pc-linux-gnu"

@.str = private unnamed_addr constant [105 x i8] c"generated/home/dtcxzyw/WorkSpace/Projects/compilers/llvm-opt-benchmark/bench/hdf5/hdf5/src/H5FDperform.c\00", align 1
@__func__.H5FDperform_init = private unnamed_addr constant [17 x i8] c"H5FDperform_init\00", align 1
@H5E_FUNC_g = external local_unnamed_addr global i64, align 8
@H5E_CANTINIT_g = external local_unnamed_addr global i64, align 8
@.str.1 = private unnamed_addr constant [30 x i8] c"library initialization failed\00", align 1

; Function Attrs: nounwind uwtable
define i64 @H5FDperform_init(ptr nocapture noundef readonly %0) local_unnamed_addr #0 {
  %2 = tail call i32 @H5_init_library() #2
  %3 = icmp slt i32 %2, 0
  br i1 %3, label %6, label %4

4:                                                ; preds = %1
  %5 = tail call i64 %0() #2
  br label %11

6:                                                ; preds = %1
  %7 = load i64, ptr @H5E_FUNC_g, align 8
  %8 = load i64, ptr @H5E_CANTINIT_g, align 8
  %9 = tail call i32 (ptr, ptr, i32, i64, i64, ptr, ...) @H5E_printf_stack(ptr noundef nonnull @.str, ptr noundef nonnull @__func__.H5FDperform_init, i32 noundef 51, i64 noundef %7, i64 noundef %8, ptr noundef nonnull @.str.1) #2
  %10 = tail call i32 @H5E_dump_api_stack() #2
  br label %11

11:                                               ; preds = %4, %6
  %.035 = phi i64 [ -1, %6 ], [ %5, %4 ]
  ret i64 %.035
}

declare i32 @H5_init_library() local_unnamed_addr #1

declare i32 @H5E_printf_stack(ptr noundef, ptr noundef, i32 noundef, i64 noundef, i64 noundef, ptr noundef, ...) local_unnamed_addr #1

declare i32 @H5E_dump_api_stack() local_unnamed_addr #1


!llvm.module.flags = !{!0, !1, !2, !3}

!0 = !{i32 1, !"wchar_size", i32 4}
!1 = !{i32 8, !"PIC Level", i32 2}
!2 = !{i32 7, !"uwtable", i32 2}
!3 = !{i32 7, !"frame-pointer", i32 2}
